target datalayout = "e-m:e-p270:32:32-p271:32:32-p272:64:64-i64:64-i128:128-f80:128-n8:16:32:64-S128"
target triple = "x86_64-pc-linux-gnu"

%struct.Vector3 = type { float, float, float }

; Function Attrs: nounwind uwtable
define { <2 x float>, float } @Vector3MoveTowards(<2 x float> %0, float %1, <2 x float> %2, float %3, float noundef %4) #9 {
  %6 = alloca %struct.Vector3, align 4
  %7 = alloca %struct.Vector3, align 4
  %8 = alloca { <2 x float>, float }, align 4
  %9 = alloca %struct.Vector3, align 4
  %10 = alloca { <2 x float>, float }, align 4
  %11 = alloca float, align 4
  %12 = alloca %struct.Vector3, align 4
  %13 = alloca float, align 4
  %14 = alloca float, align 4
  %15 = alloca float, align 4
  %16 = alloca float, align 4
  %17 = alloca i32, align 4
  %18 = alloca float, align 4
  %19 = alloca { <2 x float>, float }, align 8
  %20 = getelementptr inbounds nuw { <2 x float>, float }, ptr %8, i32 0, i32 0
  store <2 x float> %0, ptr %20, align 4
  %21 = getelementptr inbounds nuw { <2 x float>, float }, ptr %8, i32 0, i32 1
  store float %1, ptr %21, align 4
  call void @llvm.memcpy.p0.p0.i64(ptr align 4 %7, ptr align 4 %8, i64 12, i1 false)
  %22 = getelementptr inbounds nuw { <2 x float>, float }, ptr %10, i32 0, i32 0
  store <2 x float> %2, ptr %22, align 4
  %23 = getelementptr inbounds nuw { <2 x float>, float }, ptr %10, i32 0, i32 1
  store float %3, ptr %23, align 4
  call void @llvm.memcpy.p0.p0.i64(ptr align 4 %9, ptr align 4 %10, i64 12, i1 false)
  store float %4, ptr %11, align 4
  call void @llvm.lifetime.start.p0(i64 12, ptr %12) #16
  call void @llvm.memset.p0.i64(ptr align 4 %12, i8 0, i64 12, i1 false)
  call void @llvm.lifetime.start.p0(i64 4, ptr %13) #16
  %24 = getelementptr inbounds nuw %struct.Vector3, ptr %9, i32 0, i32 0
  %25 = load float, ptr %24, align 4
  %26 = getelementptr inbounds nuw %struct.Vector3, ptr %7, i32 0, i32 0
  %27 = load float, ptr %26, align 4
  %28 = fsub float %25, %27
  store float %28, ptr %13, align 4
  call void @llvm.lifetime.start.p0(i64 4, ptr %14) #16
  %29 = getelementptr inbounds nuw %struct.Vector3, ptr %9, i32 0, i32 1
  %30 = load float, ptr %29, align 4
  %31 = getelementptr inbounds nuw %struct.Vector3, ptr %7, i32 0, i32 1
  %32 = load float, ptr %31, align 4
  %33 = fsub float %30, %32
  store float %33, ptr %14, align 4
  call void @llvm.lifetime.start.p0(i64 4, ptr %15) #16
  %34 = getelementptr inbounds nuw %struct.Vector3, ptr %9, i32 0, i32 2
  %35 = load float, ptr %34, align 4
  %36 = getelementptr inbounds nuw %struct.Vector3, ptr %7, i32 0, i32 2
  %37 = load float, ptr %36, align 4
  %38 = fsub float %35, %37
  store float %38, ptr %15, align 4
  call void @llvm.lifetime.start.p0(i64 4, ptr %16) #16
  %39 = load float, ptr %13, align 4
  %40 = load float, ptr %13, align 4
  %41 = load float, ptr %14, align 4
  %42 = load float, ptr %14, align 4
  %43 = fmul float %41, %42
  %44 = call float @llvm.fmuladd.f32(float %39, float %40, float %43)
  %45 = load float, ptr %15, align 4
  %46 = load float, ptr %15, align 4
  %47 = call float @llvm.fmuladd.f32(float %45, float %46, float %44)
  store float %47, ptr %16, align 4
  %48 = load float, ptr %16, align 4
  %49 = fcmp oeq float %48, 0.000000e+00
  br i1 %49, label %59, label %50

50:                                               ; preds = %5
  %51 = load float, ptr %11, align 4
  %52 = fcmp oge float %51, 0.000000e+00
  br i1 %52, label %53, label %60

53:                                               ; preds = %50
  %54 = load float, ptr %16, align 4
  %55 = load float, ptr %11, align 4
  %56 = load float, ptr %11, align 4
  %57 = fmul float %55, %56
  %58 = fcmp ole float %54, %57
  br i1 %58, label %59, label %60

59:                                               ; preds = %53, %5
  call void @llvm.memcpy.p0.p0.i64(ptr align 4 %6, ptr align 4 %9, i64 12, i1 false)
  store i32 1, ptr %17, align 4
  br label %87

60:                                               ; preds = %53, %50
  call void @llvm.lifetime.start.p0(i64 4, ptr %18) #16
  %61 = load float, ptr %16, align 4
  %62 = call float @sqrtf(float noundef %61) #16
  store float %62, ptr %18, align 4
  %63 = getelementptr inbounds nuw %struct.Vector3, ptr %7, i32 0, i32 0
  %64 = load float, ptr %63, align 4
  %65 = load float, ptr %13, align 4
  %66 = load float, ptr %18, align 4
  %67 = fdiv float %65, %66
  %68 = load float, ptr %11, align 4
  %69 = call float @llvm.fmuladd.f32(float %67, float %68, float %64)
  %70 = getelementptr inbounds nuw %struct.Vector3, ptr %12, i32 0, i32 0
  store float %69, ptr %70, align 4
  %71 = getelementptr inbounds nuw %struct.Vector3, ptr %7, i32 0, i32 1
  %72 = load float, ptr %71, align 4
  %73 = load float, ptr %14, align 4
  %74 = load float, ptr %18, align 4
  %75 = fdiv float %73, %74
  %76 = load float, ptr %11, align 4
  %77 = call float @llvm.fmuladd.f32(float %75, float %76, float %72)
  %78 = getelementptr inbounds nuw %struct.Vector3, ptr %12, i32 0, i32 1
  store float %77, ptr %78, align 4
  %79 = getelementptr inbounds nuw %struct.Vector3, ptr %7, i32 0, i32 2
  %80 = load float, ptr %79, align 4
  %81 = load float, ptr %15, align 4
  %82 = load float, ptr %18, align 4
  %83 = fdiv float %81, %82
  %84 = load float, ptr %11, align 4
  %85 = call float @llvm.fmuladd.f32(float %83, float %84, float %80)
  %86 = getelementptr inbounds nuw %struct.Vector3, ptr %12, i32 0, i32 2
  store float %85, ptr %86, align 4
  call void @llvm.memcpy.p0.p0.i64(ptr align 4 %6, ptr align 4 %12, i64 12, i1 false)
  store i32 1, ptr %17, align 4
  call void @llvm.lifetime.end.p0(i64 4, ptr %18) #16
  br label %87

87:                                               ; preds = %60, %59
  call void @llvm.lifetime.end.p0(i64 4, ptr %16) #16
  call void @llvm.lifetime.end.p0(i64 4, ptr %15) #16
  call void @llvm.lifetime.end.p0(i64 4, ptr %14) #16
  call void @llvm.lifetime.end.p0(i64 4, ptr %13) #16
  call void @llvm.lifetime.end.p0(i64 12, ptr %12) #16
  call void @llvm.memcpy.p0.p0.i64(ptr align 8 %19, ptr align 4 %6, i64 12, i1 false)
  %88 = load { <2 x float>, float }, ptr %19, align 8
  ret { <2 x float>, float } %88
}