; Function Attrs: mustprogress nofree norecurse nosync nounwind willreturn memory(none) uwtable
define { <2 x float>, float } @Vector3MoveTowards(<2 x float> %0, float %1, <2 x float> %2, float %3, float noundef %4) local_unnamed_addr #17 {
  %.sroa.027.0.vec.extract = extractelement <2 x float> %0, i64 0
  %6 = fsub <2 x float> %2, %0
  %7 = extractelement <2 x float> %6, i64 0
  %.sroa.027.4.vec.extract = extractelement <2 x float> %0, i64 1
  %8 = fsub <2 x float> %2, %0
  %9 = extractelement <2 x float> %8, i64 1
  %10 = fsub float %3, %1
  %11 = fmul float %9, %9
  %12 = tail call float @llvm.fmuladd.f32(float %7, float %7, float %11)
  %13 = tail call float @llvm.fmuladd.f32(float %10, float %10, float %12)
  %14 = fcmp oeq float %13, 0.000000e+00
  br i1 %14, label %26, label %15

15:                                               ; preds = %5
  %16 = fcmp ult float %4, 0.000000e+00
  %17 = fmul float %4, %4
  %18 = fcmp ugt float %13, %17
  %or.cond = or i1 %16, %18
  br i1 %or.cond, label %19, label %26

19:                                               ; preds = %15
  %sqrt = tail call float @llvm.sqrt.f32(float %13)
  %20 = fdiv float %7, %sqrt
  %21 = tail call float @llvm.fmuladd.f32(float %20, float %4, float %.sroa.027.0.vec.extract)
  %22 = fdiv float %9, %sqrt
  %23 = tail call float @llvm.fmuladd.f32(float %22, float %4, float %.sroa.027.4.vec.extract)
  %24 = fdiv float %10, %sqrt
  %25 = tail call float @llvm.fmuladd.f32(float %24, float %4, float %1)
  %.sroa.034.0.vec.insert = insertelement <2 x float> poison, float %21, i64 0
  %.sroa.034.4.vec.insert = insertelement <2 x float> %.sroa.034.0.vec.insert, float %23, i64 1
  br label %26

26:                                               ; preds = %5, %15, %19
  %.sroa.034.0 = phi <2 x float> [ %.sroa.034.4.vec.insert, %19 ], [ %2, %15 ], [ %2, %5 ]
  %.sroa.436.0 = phi float [ %25, %19 ], [ %3, %15 ], [ %3, %5 ]
  %.fca.0.insert = insertvalue { <2 x float>, float } poison, <2 x float> %.sroa.034.0, 0
  %.fca.1.insert = insertvalue { <2 x float>, float } %.fca.0.insert, float %.sroa.436.0, 1
  ret { <2 x float>, float } %.fca.1.insert
}